; Function Attrs: mustprogress uwtable
define internal void @"_ZZ14cmUVStreamReadIZZN19cmCTestBuildHandler14RunMakeCommandERKNSt7__cxx1112basic_stringIcSt11char_traitsIcESaIcEEEPiPKciRSoN15cmProcessOutput8EncodingEENK3$_1clERN2cm11uv_pipe_ptrEiRSt5dequeIcS5_ERbiEUlSt6vectorIcS5_EE_ZZNS0_14RunMakeCommandES8_S9_SB_iSC_SE_ENKSF_clESI_iSL_SM_iEUlvE_ESt10unique_ptrI20cmUVStreamReadHandleSt14default_deleteISS_EEP11uv_stream_sT_T0_ENUlP11uv_handle_smP8uv_buf_tE_8__invokeES11_mS13_"(ptr nocapture noundef readonly %0, i64 noundef %1, ptr nocapture noundef writeonly %2) #3 align 2 {
  %.val = load ptr, ptr %0, align 8
  tail call void @_ZNSt6vectorIcSaIcEE6resizeEm(ptr noundef nonnull align 8 dereferenceable(24) %.val, i64 noundef %1)
  %4 = load ptr, ptr %.val, align 8
  store ptr %4, ptr %2, align 8
  %5 = getelementptr inbounds i8, ptr %2, i64 8
  store i64 %1, ptr %5, align 8
  ret void
}